; Function Attrs: nounwind uwtable
define void @If_ManImproveMark_rec(ptr noundef %0, ptr noundef %1, ptr noundef %2) local_unnamed_addr #0 {
  %4 = load i32, ptr %1, align 8
  %5 = and i32 %4, 256
  %.not = icmp eq i32 %5, 0
  br i1 %.not, label %6, label %42

6:                                                ; preds = %3
  %7 = getelementptr i8, ptr %1, i64 24
  %.val = load ptr, ptr %7, align 8, !tbaa !45
  tail call void @If_ManImproveMark_rec(ptr noundef %0, ptr noundef %.val, ptr noundef %2)
  %8 = getelementptr i8, ptr %1, i64 32
  %.val10 = load ptr, ptr %8, align 8, !tbaa !46
  tail call void @If_ManImproveMark_rec(ptr noundef %0, ptr noundef %.val10, ptr noundef %2)
  %9 = getelementptr inbounds nuw i8, ptr %2, i64 4
  %10 = load i32, ptr %9, align 4, !tbaa !32
  %11 = load i32, ptr %2, align 8, !tbaa !34
  %12 = icmp eq i32 %10, %11
  br i1 %12, label %13, label %.Vec_PtrGrow.exit11_crit_edge.i

.Vec_PtrGrow.exit11_crit_edge.i:                  ; preds = %6
  %.phi.trans.insert.i = getelementptr inbounds nuw i8, ptr %2, i64 8
  %.pre.i = load ptr, ptr %.phi.trans.insert.i, align 8, !tbaa !35
  br label %Vec_PtrPush.exit

13:                                               ; preds = %6
  %14 = icmp slt i32 %10, 16
  br i1 %14, label %15, label %23

15:                                               ; preds = %13
  %16 = getelementptr inbounds nuw i8, ptr %2, i64 8
  %17 = load ptr, ptr %16, align 8, !tbaa !35
  %.not9.i.i = icmp eq ptr %17, null
  br i1 %.not9.i.i, label %20, label %18

18:                                               ; preds = %15
  %19 = tail call dereferenceable_or_null(128) ptr @realloc(ptr noundef nonnull %17, i64 noundef 128) #16
  br label %Vec_PtrGrow.exit.i

20:                                               ; preds = %15
  %21 = tail call noalias dereferenceable_or_null(128) ptr @malloc(i64 noundef 128) #15
  br label %Vec_PtrGrow.exit.i

Vec_PtrGrow.exit.i:                               ; preds = %20, %18
  %22 = phi ptr [ %19, %18 ], [ %21, %20 ]
  store ptr %22, ptr %16, align 8, !tbaa !35
  store i32 16, ptr %2, align 8, !tbaa !34
  br label %Vec_PtrPush.exit

23:                                               ; preds = %13
  %24 = shl nuw nsw i32 %10, 1
  %25 = getelementptr inbounds nuw i8, ptr %2, i64 8
  %26 = load ptr, ptr %25, align 8, !tbaa !35
  %.not9.i10.i = icmp eq ptr %26, null
  %27 = zext nneg i32 %24 to i64
  %28 = shl nuw nsw i64 %27, 3
  br i1 %.not9.i10.i, label %31, label %29

29:                                               ; preds = %23
  %30 = tail call ptr @realloc(ptr noundef nonnull %26, i64 noundef %28) #16
  br label %33

31:                                               ; preds = %23
  %32 = tail call noalias ptr @malloc(i64 noundef %28) #15
  br label %33

33:                                               ; preds = %31, %29
  %34 = phi ptr [ %30, %29 ], [ %32, %31 ]
  store ptr %34, ptr %25, align 8, !tbaa !35
  store i32 %24, ptr %2, align 8, !tbaa !34
  br label %Vec_PtrPush.exit

Vec_PtrPush.exit:                                 ; preds = %.Vec_PtrGrow.exit11_crit_edge.i, %Vec_PtrGrow.exit.i, %33
  %35 = phi ptr [ %.pre.i, %.Vec_PtrGrow.exit11_crit_edge.i ], [ %34, %33 ], [ %22, %Vec_PtrGrow.exit.i ]
  %36 = load i32, ptr %9, align 4, !tbaa !32
  %37 = add nsw i32 %36, 1
  store i32 %37, ptr %9, align 4, !tbaa !32
  %38 = sext i32 %36 to i64
  %39 = getelementptr inbounds ptr, ptr %35, i64 %38
  store ptr %1, ptr %39, align 8, !tbaa !37
  %40 = load i32, ptr %1, align 8
  %41 = or i32 %40, 256
  store i32 %41, ptr %1, align 8
  br label %42

42:                                               ; preds = %3, %Vec_PtrPush.exit
  ret void
}